target datalayout = "e-m:e-p270:32:32-p271:32:32-p272:64:64-i64:64-i128:128-f80:128-n8:16:32:64-S128"
target triple = "x86_64-pc-linux-gnu"

@ax25_cap_handle = internal global ptr null, align 8

; Function Attrs: null_pointer_is_valid sspstrong uwtable
define internal zeroext i1 @capture_ax25_kiss(ptr noundef %0, i32 noundef %1, i32 noundef %2, ptr noundef %3, ptr noundef %4) #0 {
  %6 = alloca i1, align 1
  %7 = alloca ptr, align 8
  %8 = alloca i32, align 4
  %9 = alloca i32, align 4
  %10 = alloca ptr, align 8
  %11 = alloca ptr, align 8
  %12 = alloca i32, align 4
  %13 = alloca i8, align 1
  %14 = alloca i32, align 4
  store ptr %0, ptr %7, align 8
  store i32 %1, ptr %8, align 4
  store i32 %2, ptr %9, align 4
  store ptr %3, ptr %10, align 8
  store ptr %4, ptr %11, align 8
  call void @llvm.lifetime.start.p0(i64 4, ptr %12) #5
  call void @llvm.lifetime.start.p0(i64 1, ptr %13) #5
  %15 = load i32, ptr %8, align 4
  %16 = add i32 %15, 1
  %17 = load i32, ptr %8, align 4
  %18 = icmp ugt i32 %16, %17
  br i1 %18, label %19, label %24

19:                                               ; preds = %5
  %20 = load i32, ptr %8, align 4
  %21 = add i32 %20, 1
  %22 = load i32, ptr %9, align 4
  %23 = icmp ule i32 %21, %22
  br i1 %23, label %25, label %24

24:                                               ; preds = %19, %5
  store i1 false, ptr %6, align 1
  store i32 1, ptr %14, align 4
  br label %57

25:                                               ; preds = %19
  %26 = load i32, ptr %8, align 4
  store i32 %26, ptr %12, align 4
  %27 = load ptr, ptr %7, align 8
  %28 = load i32, ptr %12, align 4
  %29 = sext i32 %28 to i64
  %30 = getelementptr i8, ptr %27, i64 %29
  %31 = load i8, ptr %30, align 1
  store i8 %31, ptr %13, align 1
  %32 = load i32, ptr %12, align 4
  %33 = add i32 %32, 1
  store i32 %33, ptr %12, align 4
  %34 = load i8, ptr %13, align 1
  %35 = zext i8 %34 to i32
  %36 = and i32 %35, 15
  switch i32 %36, label %55 [
    i32 0, label %37
    i32 1, label %56
    i32 2, label %56
    i32 3, label %56
    i32 4, label %56
    i32 5, label %56
    i32 6, label %56
    i32 12, label %45
    i32 14, label %56
    i32 15, label %56
  ]

37:                                               ; preds = %25
  %38 = load ptr, ptr @ax25_cap_handle, align 8
  %39 = load ptr, ptr %7, align 8
  %40 = load i32, ptr %12, align 4
  %41 = load i32, ptr %9, align 4
  %42 = load ptr, ptr %10, align 8
  %43 = load ptr, ptr %11, align 8
  %44 = call zeroext i1 @call_capture_dissector(ptr noundef %38, ptr noundef %39, i32 noundef %40, i32 noundef %41, ptr noundef %42, ptr noundef %43)
  store i1 %44, ptr %6, align 1
  store i32 1, ptr %14, align 4
  br label %57

45:                                               ; preds = %25
  %46 = load i32, ptr %12, align 4
  %47 = add i32 %46, 2
  store i32 %47, ptr %12, align 4
  %48 = load ptr, ptr @ax25_cap_handle, align 8
  %49 = load ptr, ptr %7, align 8
  %50 = load i32, ptr %12, align 4
  %51 = load i32, ptr %9, align 4
  %52 = load ptr, ptr %10, align 8
  %53 = load ptr, ptr %11, align 8
  %54 = call zeroext i1 @call_capture_dissector(ptr noundef %48, ptr noundef %49, i32 noundef %50, i32 noundef %51, ptr noundef %52, ptr noundef %53)
  store i1 %54, ptr %6, align 1
  store i32 1, ptr %14, align 4
  br label %57

55:                                               ; preds = %25
  br label %56

56:                                               ; preds = %55, %25, %25, %25, %25, %25, %25, %25, %25
  store i1 false, ptr %6, align 1
  store i32 1, ptr %14, align 4
  br label %57

57:                                               ; preds = %56, %45, %37, %24
  call void @llvm.lifetime.end.p0(i64 1, ptr %13) #5
  call void @llvm.lifetime.end.p0(i64 4, ptr %12) #5
  %58 = load i1, ptr %6, align 1
  ret i1 %58
}