; Function Attrs: null_pointer_is_valid sspstrong uwtable
define internal zeroext i1 @capture_ax25_kiss(ptr noundef %0, i32 noundef %1, i32 noundef %2, ptr noundef %3, ptr noundef %4) #0 {
  %or.cond.not = icmp ult i32 %1, %2
  br i1 %or.cond.not, label %6, label %16

6:                                                ; preds = %5
  %7 = add i32 %1, 1
  %8 = sext i32 %1 to i64
  %9 = getelementptr i8, ptr %0, i64 %8
  %10 = load i8, ptr %9, align 1
  %11 = and i8 %10, 15
  switch i8 %11, label %16 [
    i8 0, label %.sink.split
    i8 12, label %12
  ]

12:                                               ; preds = %6
  %13 = add i32 %1, 3
  br label %.sink.split

.sink.split:                                      ; preds = %6, %12
  %.sink24 = phi i32 [ %13, %12 ], [ %7, %6 ]
  %14 = load ptr, ptr @ax25_cap_handle, align 8
  %15 = tail call zeroext i1 @call_capture_dissector(ptr noundef %14, ptr noundef %0, i32 noundef %.sink24, i32 noundef %2, ptr noundef %3, ptr noundef %4)
  br label %16

16:                                               ; preds = %.sink.split, %6, %5
  %.0 = phi i1 [ false, %5 ], [ false, %6 ], [ %15, %.sink.split ]
  ret i1 %.0
}